; Function Attrs: mustprogress nofree norecurse nosync nounwind willreturn memory(argmem: write) uwtable
define dso_local void @_ZN4llvm15DWARFDebugFrameC2ENS_6Triple8ArchTypeEbm(ptr noundef nonnull writeonly align 8 captures(none) dereferenceable(40) initializes((0, 5), (8, 40)) %0, i32 noundef %1, i1 noundef zeroext %2, i64 noundef %3) unnamed_addr #0 align 2 {
  %5 = zext i1 %2 to i8
  store i32 %1, ptr %0, align 8
  %6 = getelementptr inbounds nuw i8, ptr %0, i64 4
  store i8 %5, ptr %6, align 4
  %7 = getelementptr inbounds nuw i8, ptr %0, i64 8
  store i64 %3, ptr %7, align 8
  %8 = getelementptr inbounds nuw i8, ptr %0, i64 16
  tail call void @llvm.memset.p0.i64(ptr noundef nonnull align 8 dereferenceable(24) %8, i8 0, i64 24, i1 false)
  ret void
}